target datalayout = "e-m:e-p270:32:32-p271:32:32-p272:64:64-i64:64-i128:128-f80:128-n8:16:32:64-S128"
target triple = "x86_64-pc-linux-gnu"

@hf_fmp_fmpFHandle = internal global i32 0, align 4
@hf_fmp_msgNum = internal global i32 0, align 4
@hf_fmp_eof = internal global i32 0, align 4

; Function Attrs: null_pointer_is_valid sspstrong uwtable
define internal i32 @dissect_FMP_Flush_request(ptr noundef %0, ptr noundef %1, ptr noundef %2, ptr noundef %3) #0 {
  %5 = alloca ptr, align 8
  %6 = alloca ptr, align 8
  %7 = alloca ptr, align 8
  %8 = alloca ptr, align 8
  %9 = alloca i32, align 4
  store ptr %0, ptr %5, align 8
  store ptr %1, ptr %6, align 8
  store ptr %2, ptr %7, align 8
  store ptr %3, ptr %8, align 8
  call void @llvm.lifetime.start.p0(i64 4, ptr %9) #4
  store i32 0, ptr %9, align 4
  %10 = load ptr, ptr %5, align 8
  %11 = load ptr, ptr %7, align 8
  %12 = load i32, ptr @hf_fmp_fmpFHandle, align 4
  %13 = load i32, ptr %9, align 4
  %14 = call i32 @dissect_rpc_data(ptr noundef %10, ptr noundef %11, i32 noundef %12, i32 noundef %13)
  store i32 %14, ptr %9, align 4
  %15 = load ptr, ptr %5, align 8
  %16 = load ptr, ptr %7, align 8
  %17 = load i32, ptr @hf_fmp_msgNum, align 4
  %18 = load i32, ptr %9, align 4
  %19 = call i32 @dissect_rpc_uint32(ptr noundef %15, ptr noundef %16, i32 noundef %17, i32 noundef %18)
  store i32 %19, ptr %9, align 4
  %20 = load ptr, ptr %5, align 8
  %21 = load i32, ptr %9, align 4
  %22 = load ptr, ptr %7, align 8
  %23 = call i32 @dissect_fmp_flushCmd(ptr noundef %20, i32 noundef %21, ptr noundef %22)
  store i32 %23, ptr %9, align 4
  %24 = load ptr, ptr %5, align 8
  %25 = load ptr, ptr %7, align 8
  %26 = load i32, ptr @hf_fmp_eof, align 4
  %27 = load i32, ptr %9, align 4
  %28 = call i32 @dissect_rpc_uint64(ptr noundef %24, ptr noundef %25, i32 noundef %26, i32 noundef %27)
  store i32 %28, ptr %9, align 4
  %29 = load ptr, ptr %5, align 8
  %30 = load i32, ptr %9, align 4
  %31 = load ptr, ptr %6, align 8
  %32 = load ptr, ptr %7, align 8
  %33 = call i32 @dissect_fmp_extentList(ptr noundef %29, i32 noundef %30, ptr noundef %31, ptr noundef %32)
  store i32 %33, ptr %9, align 4
  %34 = load i32, ptr %9, align 4
  call void @llvm.lifetime.end.p0(i64 4, ptr %9) #4
  ret i32 %34
}